; Function Attrs: nounwind uwtable
define internal fastcc range(i32 -1, 256) i32 @wait_or_whine(i32 noundef %0, ptr noundef %1, i32 noundef range(i32 0, 2) %2) unnamed_addr #3 {
  %4 = alloca i32, align 4
  call void @llvm.lifetime.start.p0(i64 4, ptr nonnull %4) #21
  br label %5

5:                                                ; preds = %8, %3
  %6 = call i32 @waitpid(i32 noundef %0, ptr noundef nonnull %4, i32 noundef 0) #21
  %7 = icmp slt i32 %6, 0
  br i1 %7, label %8, label %.critedge32

8:                                                ; preds = %5
  %9 = tail call ptr @__errno_location() #23
  %10 = load i32, ptr %9, align 4, !tbaa !18
  %11 = icmp eq i32 %10, 4
  br i1 %11, label %5, label %.critedge, !llvm.loop !80

.critedge:                                        ; preds = %8
  %.not30 = icmp eq i32 %2, 0
  br i1 %.not30, label %12, label %clear_child_for_cleanup.exit

12:                                               ; preds = %.critedge
  %13 = call i32 (ptr, ...) @error_errno(ptr noundef nonnull @.str.58, ptr noundef %1) #21
  br label %.thread

.critedge32:                                      ; preds = %5
  %.not = icmp eq i32 %6, %0
  br i1 %.not, label %17, label %14

14:                                               ; preds = %.critedge32
  %.not29 = icmp eq i32 %2, 0
  br i1 %.not29, label %15, label %clear_child_for_cleanup.exit

15:                                               ; preds = %14
  %16 = call i32 (ptr, ...) @error(ptr noundef nonnull @.str.59, ptr noundef %1) #21
  br label %.thread

17:                                               ; preds = %.critedge32
  %18 = load i32, ptr %4, align 4, !tbaa !18
  %19 = and i32 %18, 127
  %20 = shl nuw nsw i32 %19, 24
  %sext = add nuw i32 %20, 16777216
  %21 = icmp sgt i32 %sext, 33554431
  br i1 %21, label %22, label %28

22:                                               ; preds = %17
  %23 = icmp eq i32 %2, 0
  br i1 %23, label %switch.early.test, label %26

switch.early.test:                                ; preds = %22
  switch i32 %19, label %24 [
    i32 13, label %26
    i32 3, label %26
    i32 2, label %26
  ]

24:                                               ; preds = %switch.early.test
  %25 = call i32 (ptr, ...) @error(ptr noundef nonnull @.str.60, ptr noundef %1, i32 noundef %19) #21
  br label %26

26:                                               ; preds = %switch.early.test, %switch.early.test, %switch.early.test, %22, %24
  %27 = or disjoint i32 %19, 128
  br label %36

28:                                               ; preds = %17
  %29 = icmp eq i32 %19, 0
  br i1 %29, label %30, label %33

30:                                               ; preds = %28
  %31 = lshr i32 %18, 8
  %32 = and i32 %31, 255
  br label %36

33:                                               ; preds = %28
  %.not28 = icmp eq i32 %2, 0
  br i1 %.not28, label %34, label %clear_child_for_cleanup.exit

34:                                               ; preds = %33
  %35 = call i32 (ptr, ...) @error(ptr noundef nonnull @.str.59, ptr noundef %1) #21
  br label %.thread

36:                                               ; preds = %30, %26
  %.025 = phi i32 [ %27, %26 ], [ %32, %30 ]
  %.not31 = icmp eq i32 %2, 0
  br i1 %.not31, label %.thread, label %clear_child_for_cleanup.exit

.thread:                                          ; preds = %12, %34, %15, %36
  %.039 = phi i32 [ 0, %36 ], [ 0, %34 ], [ 0, %15 ], [ %10, %12 ]
  %.02537 = phi i32 [ %.025, %36 ], [ -1, %34 ], [ -1, %15 ], [ -1, %12 ]
  %37 = load ptr, ptr @children_to_clean, align 8, !tbaa !77
  %.not13.i = icmp eq ptr %37, null
  br i1 %.not13.i, label %clear_child_for_cleanup.exit, label %.lr.ph.i.preheader

.lr.ph.i.preheader:                               ; preds = %.thread
  %38 = load i32, ptr %37, align 8, !tbaa !72
  %.not10.i51 = icmp eq i32 %38, %0
  br i1 %.not10.i51, label %.lr.ph.i._crit_edge, label %.critedge.i

.lr.ph.i:                                         ; preds = %.critedge.i
  %39 = load i32, ptr %45, align 8, !tbaa !72
  %.not10.i = icmp eq i32 %39, %0
  br i1 %.not10.i, label %.lr.ph.i._crit_edge.loopexit, label %.critedge.i, !llvm.loop !81

.lr.ph.i._crit_edge.loopexit:                     ; preds = %.lr.ph.i
  %40 = getelementptr inbounds nuw i8, ptr %43, i64 16
  br label %.lr.ph.i._crit_edge

.lr.ph.i._crit_edge:                              ; preds = %.lr.ph.i._crit_edge.loopexit, %.lr.ph.i.preheader
  %.lcssa = phi ptr [ %37, %.lr.ph.i.preheader ], [ %45, %.lr.ph.i._crit_edge.loopexit ]
  %.0814.i.lcssa = phi ptr [ @children_to_clean, %.lr.ph.i.preheader ], [ %40, %.lr.ph.i._crit_edge.loopexit ]
  %41 = getelementptr inbounds nuw i8, ptr %.lcssa, i64 16
  %42 = load ptr, ptr %41, align 8, !tbaa !78
  store ptr %42, ptr %.0814.i.lcssa, align 8, !tbaa !77
  call void @free(ptr noundef nonnull %.lcssa) #21
  br label %clear_child_for_cleanup.exit

.critedge.i:                                      ; preds = %.lr.ph.i.preheader, %.lr.ph.i
  %43 = phi ptr [ %45, %.lr.ph.i ], [ %37, %.lr.ph.i.preheader ]
  %44 = getelementptr inbounds nuw i8, ptr %43, i64 16
  %45 = load ptr, ptr %44, align 8, !tbaa !77
  %.not.i = icmp eq ptr %45, null
  br i1 %.not.i, label %clear_child_for_cleanup.exit, label %.lr.ph.i, !llvm.loop !81

clear_child_for_cleanup.exit:                     ; preds = %.critedge.i, %.critedge, %33, %14, %.lr.ph.i._crit_edge, %.thread, %36
  %.038 = phi i32 [ 0, %36 ], [ %.039, %.thread ], [ %.039, %.lr.ph.i._crit_edge ], [ 0, %33 ], [ 0, %14 ], [ %10, %.critedge ], [ %.039, %.critedge.i ]
  %.02536 = phi i32 [ %.025, %36 ], [ %.02537, %.thread ], [ %.02537, %.lr.ph.i._crit_edge ], [ -1, %33 ], [ -1, %14 ], [ -1, %.critedge ], [ %.02537, %.critedge.i ]
  %46 = tail call ptr @__errno_location() #23
  store i32 %.038, ptr %46, align 4, !tbaa !18
  call void @llvm.lifetime.end.p0(i64 4, ptr nonnull %4) #21
  ret i32 %.02536
}